; Function Attrs: nounwind uwtable
define internal void @evhttp_deferred_read_cb(ptr readnone captures(none) %0, ptr noundef %1) #0 {
  %3 = getelementptr inbounds nuw i8, ptr %1, i64 16
  %4 = load ptr, ptr %3, align 8
  %5 = getelementptr inbounds nuw i8, ptr %4, i64 304
  %6 = load ptr, ptr %5, align 8
  %.not = icmp eq ptr %6, null
  br i1 %.not, label %8, label %7

7:                                                ; preds = %2
  tail call void %6(ptr noundef nonnull %4, ptr noundef nonnull %1) #18
  br label %8

8:                                                ; preds = %7, %2
  ret void
}